target datalayout = "e-m:e-p270:32:32-p271:32:32-p272:64:64-i64:64-i128:128-f80:128-n8:16:32:64-S128"
target triple = "x86_64-pc-linux-gnu"

%struct.lean_object = type { i32, i32 }
%struct.lean_array_object = type { %struct.lean_object, i64, i64, [0 x ptr] }
%struct.lean_ctor_object = type { %struct.lean_object, [0 x ptr] }

; Function Attrs: inlinehint nounwind uwtable
define internal zeroext i1 @lean_is_st(ptr noundef %0) #0 {
  %2 = alloca ptr, align 8
  store ptr %0, ptr %2, align 8, !tbaa !4
  %3 = load ptr, ptr %2, align 8, !tbaa !4
  %4 = getelementptr inbounds nuw %struct.lean_object, ptr %3, i32 0, i32 0
  %5 = load i32, ptr %4, align 4, !tbaa !13
  %6 = icmp sgt i32 %5, 0
  ret i1 %6
}

; Function Attrs: inlinehint nounwind uwtable
define internal ptr @lean_to_ctor(ptr noundef %0) #0 {
  %2 = alloca ptr, align 8
  store ptr %0, ptr %2, align 8, !tbaa !4
  %3 = load ptr, ptr %2, align 8, !tbaa !4
  ret ptr %3
}

; Function Attrs: inlinehint nounwind uwtable
define internal ptr @lean_to_array(ptr noundef %0) #0 {
  %2 = alloca ptr, align 8
  store ptr %0, ptr %2, align 8, !tbaa !4
  %3 = load ptr, ptr %2, align 8, !tbaa !4
  ret ptr %3
}

; Function Attrs: alwaysinline nounwind uwtable
define internal void @lean_dec_ref(ptr noundef %0) #1 {
  %2 = alloca ptr, align 8
  store ptr %0, ptr %2, align 8, !tbaa !4
  %3 = load ptr, ptr %2, align 8, !tbaa !4
  %4 = getelementptr inbounds nuw %struct.lean_object, ptr %3, i32 0, i32 0
  %5 = load i32, ptr %4, align 4, !tbaa !13
  %6 = icmp sgt i32 %5, 1
  %7 = zext i1 %6 to i32
  %8 = sext i32 %7 to i64
  %9 = call i64 @llvm.expect.i64(i64 %8, i64 1)
  %10 = icmp ne i64 %9, 0
  br i1 %10, label %11, label %16

11:                                               ; preds = %1
  %12 = load ptr, ptr %2, align 8, !tbaa !4
  %13 = getelementptr inbounds nuw %struct.lean_object, ptr %12, i32 0, i32 0
  %14 = load i32, ptr %13, align 4, !tbaa !13
  %15 = add i32 %14, -1
  store i32 %15, ptr %13, align 4, !tbaa !13
  br label %24

16:                                               ; preds = %1
  %17 = load ptr, ptr %2, align 8, !tbaa !4
  %18 = getelementptr inbounds nuw %struct.lean_object, ptr %17, i32 0, i32 0
  %19 = load i32, ptr %18, align 4, !tbaa !13
  %20 = icmp ne i32 %19, 0
  br i1 %20, label %21, label %23

21:                                               ; preds = %16
  %22 = load ptr, ptr %2, align 8, !tbaa !4
  call void @lean_dec_ref_cold(ptr noundef %22)
  br label %23

23:                                               ; preds = %21, %16
  br label %24

24:                                               ; preds = %23, %11
  ret void
}

; Function Attrs: inlinehint nounwind uwtable
define internal void @lean_inc_ref(ptr noundef %0) #0 {
  %2 = alloca ptr, align 8
  store ptr %0, ptr %2, align 8, !tbaa !4
  %3 = load ptr, ptr %2, align 8, !tbaa !4
  %4 = call zeroext i1 @lean_is_st(ptr noundef %3)
  %5 = zext i1 %4 to i64
  %6 = call i64 @llvm.expect.i64(i64 %5, i64 1)
  %7 = icmp ne i64 %6, 0
  br i1 %7, label %8, label %13

8:                                                ; preds = %1
  %9 = load ptr, ptr %2, align 8, !tbaa !4
  %10 = getelementptr inbounds nuw %struct.lean_object, ptr %9, i32 0, i32 0
  %11 = load i32, ptr %10, align 4, !tbaa !13
  %12 = add i32 %11, 1
  store i32 %12, ptr %10, align 4, !tbaa !13
  br label %21

13:                                               ; preds = %1
  %14 = load ptr, ptr %2, align 8, !tbaa !4
  %15 = getelementptr inbounds nuw %struct.lean_object, ptr %14, i32 0, i32 0
  %16 = load i32, ptr %15, align 4, !tbaa !13
  %17 = icmp ne i32 %16, 0
  br i1 %17, label %18, label %20

18:                                               ; preds = %13
  %19 = load ptr, ptr %2, align 8, !tbaa !4
  call void @lean_inc_ref_cold(ptr noundef %19)
  br label %20

20:                                               ; preds = %18, %13
  br label %21

21:                                               ; preds = %20, %8
  ret void
}

; Function Attrs: inlinehint nounwind uwtable
define internal ptr @lean_ctor_obj_cptr(ptr noundef %0) #0 {
  %2 = alloca ptr, align 8
  store ptr %0, ptr %2, align 8, !tbaa !4
  %3 = load ptr, ptr %2, align 8, !tbaa !4
  %4 = call ptr @lean_to_ctor(ptr noundef %3)
  %5 = getelementptr inbounds nuw %struct.lean_ctor_object, ptr %4, i32 0, i32 1
  %6 = getelementptr inbounds [0 x ptr], ptr %5, i64 0, i64 0
  ret ptr %6
}

; Function Attrs: inlinehint nounwind uwtable
define internal zeroext i8 @lean_ptr_tag(ptr noundef %0) #0 {
  %2 = alloca ptr, align 8
  store ptr %0, ptr %2, align 8, !tbaa !4
  %3 = load ptr, ptr %2, align 8, !tbaa !4
  %4 = getelementptr inbounds nuw %struct.lean_object, ptr %3, i32 0, i32 1
  %5 = load i32, ptr %4, align 4
  %6 = lshr i32 %5, 24
  %7 = trunc i32 %6 to i8
  ret i8 %7
}

; Function Attrs: inlinehint nounwind uwtable
define internal i64 @lean_unbox(ptr noundef %0) #0 {
  %2 = alloca ptr, align 8
  store ptr %0, ptr %2, align 8, !tbaa !4
  %3 = load ptr, ptr %2, align 8, !tbaa !4
  %4 = ptrtoint ptr %3 to i64
  %5 = lshr i64 %4, 1
  ret i64 %5
}

; Function Attrs: alwaysinline nounwind uwtable
define internal zeroext i1 @lean_is_scalar(ptr noundef %0) #1 {
  %2 = alloca ptr, align 8
  store ptr %0, ptr %2, align 8, !tbaa !4
  %3 = load ptr, ptr %2, align 8, !tbaa !4
  %4 = ptrtoint ptr %3 to i64
  %5 = and i64 %4, 1
  %6 = icmp eq i64 %5, 1
  ret i1 %6
}

; Function Attrs: inlinehint nounwind uwtable
define internal ptr @lean_array_get_core(ptr noundef %0, i64 noundef %1) #0 {
  %3 = alloca ptr, align 8
  %4 = alloca i64, align 8
  store ptr %0, ptr %3, align 8, !tbaa !4
  store i64 %1, ptr %4, align 8, !tbaa !8
  %5 = load ptr, ptr %3, align 8, !tbaa !4
  %6 = call ptr @lean_to_array(ptr noundef %5)
  %7 = getelementptr inbounds nuw %struct.lean_array_object, ptr %6, i32 0, i32 3
  %8 = load i64, ptr %4, align 8, !tbaa !8
  %9 = getelementptr inbounds nuw [0 x ptr], ptr %7, i64 0, i64 %8
  %10 = load ptr, ptr %9, align 8, !tbaa !4
  ret ptr %10
}

; Function Attrs: alwaysinline nounwind uwtable
define internal void @lean_dec(ptr noundef %0) #1 {
  %2 = alloca ptr, align 8
  store ptr %0, ptr %2, align 8, !tbaa !4
  %3 = load ptr, ptr %2, align 8, !tbaa !4
  %4 = call zeroext i1 @lean_is_scalar(ptr noundef %3)
  br i1 %4, label %7, label %5

5:                                                ; preds = %1
  %6 = load ptr, ptr %2, align 8, !tbaa !4
  call void @lean_dec_ref(ptr noundef %6)
  br label %7

7:                                                ; preds = %5, %1
  ret void
}

; Function Attrs: alwaysinline nounwind uwtable
define internal void @lean_inc(ptr noundef %0) #1 {
  %2 = alloca ptr, align 8
  store ptr %0, ptr %2, align 8, !tbaa !4
  %3 = load ptr, ptr %2, align 8, !tbaa !4
  %4 = call zeroext i1 @lean_is_scalar(ptr noundef %3)
  br i1 %4, label %7, label %5

5:                                                ; preds = %1
  %6 = load ptr, ptr %2, align 8, !tbaa !4
  call void @lean_inc_ref(ptr noundef %6)
  br label %7

7:                                                ; preds = %5, %1
  ret void
}

; Function Attrs: inlinehint nounwind uwtable
define internal ptr @lean_ctor_get(ptr noundef %0, i32 noundef %1) #0 {
  %3 = alloca ptr, align 8
  %4 = alloca i32, align 4
  store ptr %0, ptr %3, align 8, !tbaa !4
  store i32 %1, ptr %4, align 4, !tbaa !11
  %5 = load ptr, ptr %3, align 8, !tbaa !4
  %6 = call ptr @lean_ctor_obj_cptr(ptr noundef %5)
  %7 = load i32, ptr %4, align 4, !tbaa !11
  %8 = zext i32 %7 to i64
  %9 = getelementptr inbounds nuw ptr, ptr %6, i64 %8
  %10 = load ptr, ptr %9, align 8, !tbaa !4
  ret ptr %10
}

; Function Attrs: inlinehint nounwind uwtable
define internal i64 @lean_usize_add(i64 noundef %0, i64 noundef %1) #0 {
  %3 = alloca i64, align 8
  %4 = alloca i64, align 8
  store i64 %0, ptr %3, align 8, !tbaa !8
  store i64 %1, ptr %4, align 8, !tbaa !8
  %5 = load i64, ptr %3, align 8, !tbaa !8
  %6 = load i64, ptr %4, align 8, !tbaa !8
  %7 = add i64 %5, %6
  ret i64 %7
}

; Function Attrs: inlinehint nounwind uwtable
define internal i32 @lean_obj_tag(ptr noundef %0) #0 {
  %2 = alloca i32, align 4
  %3 = alloca ptr, align 8
  store ptr %0, ptr %3, align 8, !tbaa !4
  %4 = load ptr, ptr %3, align 8, !tbaa !4
  %5 = call zeroext i1 @lean_is_scalar(ptr noundef %4)
  br i1 %5, label %6, label %10

6:                                                ; preds = %1
  %7 = load ptr, ptr %3, align 8, !tbaa !4
  %8 = call i64 @lean_unbox(ptr noundef %7)
  %9 = trunc i64 %8 to i32
  store i32 %9, ptr %2, align 4
  br label %14

10:                                               ; preds = %1
  %11 = load ptr, ptr %3, align 8, !tbaa !4
  %12 = call zeroext i8 @lean_ptr_tag(ptr noundef %11)
  %13 = zext i8 %12 to i32
  store i32 %13, ptr %2, align 4
  br label %14

14:                                               ; preds = %10, %6
  %15 = load i32, ptr %2, align 4
  ret i32 %15
}

; Function Attrs: inlinehint nounwind uwtable
define internal ptr @lean_array_uget(ptr noundef %0, i64 noundef %1) #0 {
  %3 = alloca ptr, align 8
  %4 = alloca i64, align 8
  %5 = alloca ptr, align 8
  store ptr %0, ptr %3, align 8, !tbaa !4
  store i64 %1, ptr %4, align 8, !tbaa !8
  call void @llvm.lifetime.start.p0(i64 8, ptr %5) #8
  %6 = load ptr, ptr %3, align 8, !tbaa !4
  %7 = load i64, ptr %4, align 8, !tbaa !8
  %8 = call ptr @lean_array_get_core(ptr noundef %6, i64 noundef %7)
  store ptr %8, ptr %5, align 8, !tbaa !4
  %9 = load ptr, ptr %5, align 8, !tbaa !4
  call void @lean_inc(ptr noundef %9)
  %10 = load ptr, ptr %5, align 8, !tbaa !4
  call void @llvm.lifetime.end.p0(i64 8, ptr %5) #8
  ret ptr %10
}

; Function Attrs: inlinehint nounwind uwtable
define internal zeroext i8 @lean_usize_dec_eq(i64 noundef %0, i64 noundef %1) #0 {
  %3 = alloca i64, align 8
  %4 = alloca i64, align 8
  store i64 %0, ptr %3, align 8, !tbaa !8
  store i64 %1, ptr %4, align 8, !tbaa !8
  %5 = load i64, ptr %3, align 8, !tbaa !8
  %6 = load i64, ptr %4, align 8, !tbaa !8
  %7 = icmp eq i64 %5, %6
  %8 = zext i1 %7 to i32
  %9 = trunc i32 %8 to i8
  ret i8 %9
}

; Function Attrs: nounwind uwtable
define zeroext i8 @l_Array_anyMUnsafe_any___at_Lean_MVarId_clear___spec__15(ptr noundef %0, ptr noundef %1, i64 noundef %2, i64 noundef %3) #2 {
  %5 = alloca i8, align 1
  %6 = alloca ptr, align 8
  %7 = alloca ptr, align 8
  %8 = alloca i64, align 8
  %9 = alloca i64, align 8
  %10 = alloca i8, align 1
  %11 = alloca ptr, align 8
  %12 = alloca i64, align 8
  %13 = alloca i64, align 8
  %14 = alloca i32, align 4
  %15 = alloca ptr, align 8
  %16 = alloca ptr, align 8
  %17 = alloca i8, align 1
  %18 = alloca i64, align 8
  %19 = alloca i64, align 8
  %20 = alloca i8, align 1
  %21 = alloca i8, align 1
  store ptr %0, ptr %6, align 8, !tbaa !4
  store ptr %1, ptr %7, align 8, !tbaa !4
  store i64 %2, ptr %8, align 8, !tbaa !8
  store i64 %3, ptr %9, align 8, !tbaa !8
  br label %22

22:                                               ; preds = %67, %4
  call void @llvm.lifetime.start.p0(i64 1, ptr %10) #8
  %23 = load i64, ptr %8, align 8, !tbaa !8
  %24 = load i64, ptr %9, align 8, !tbaa !8
  %25 = call zeroext i8 @lean_usize_dec_eq(i64 noundef %23, i64 noundef %24)
  store i8 %25, ptr %10, align 1, !tbaa !10
  %26 = load i8, ptr %10, align 1, !tbaa !10
  %27 = zext i8 %26 to i32
  %28 = icmp eq i32 %27, 0
  br i1 %28, label %29, label %65

29:                                               ; preds = %22
  call void @llvm.lifetime.start.p0(i64 8, ptr %11) #8
  %30 = load ptr, ptr %7, align 8, !tbaa !4
  %31 = load i64, ptr %8, align 8, !tbaa !8
  %32 = call ptr @lean_array_uget(ptr noundef %30, i64 noundef %31)
  store ptr %32, ptr %11, align 8, !tbaa !4
  %33 = load ptr, ptr %11, align 8, !tbaa !4
  %34 = call i32 @lean_obj_tag(ptr noundef %33)
  %35 = icmp eq i32 %34, 0
  br i1 %35, label %36, label %41

36:                                               ; preds = %29
  call void @llvm.lifetime.start.p0(i64 8, ptr %12) #8
  call void @llvm.lifetime.start.p0(i64 8, ptr %13) #8
  store i64 1, ptr %12, align 8, !tbaa !8
  %37 = load i64, ptr %8, align 8, !tbaa !8
  %38 = load i64, ptr %12, align 8, !tbaa !8
  %39 = call i64 @lean_usize_add(i64 noundef %37, i64 noundef %38)
  store i64 %39, ptr %13, align 8, !tbaa !8
  %40 = load i64, ptr %13, align 8, !tbaa !8
  store i64 %40, ptr %8, align 8, !tbaa !8
  store i32 2, ptr %14, align 4
  call void @llvm.lifetime.end.p0(i64 8, ptr %13) #8
  call void @llvm.lifetime.end.p0(i64 8, ptr %12) #8
  br label %64

41:                                               ; preds = %29
  call void @llvm.lifetime.start.p0(i64 8, ptr %15) #8
  call void @llvm.lifetime.start.p0(i64 8, ptr %16) #8
  call void @llvm.lifetime.start.p0(i64 1, ptr %17) #8
  %42 = load ptr, ptr %11, align 8, !tbaa !4
  %43 = call ptr @lean_ctor_get(ptr noundef %42, i32 noundef 0)
  store ptr %43, ptr %15, align 8, !tbaa !4
  %44 = load ptr, ptr %15, align 8, !tbaa !4
  call void @lean_inc(ptr noundef %44)
  %45 = load ptr, ptr %11, align 8, !tbaa !4
  call void @lean_dec(ptr noundef %45)
  %46 = load ptr, ptr %15, align 8, !tbaa !4
  %47 = call ptr @l_Lean_LocalDecl_fvarId(ptr noundef %46)
  store ptr %47, ptr %16, align 8, !tbaa !4
  %48 = load ptr, ptr %15, align 8, !tbaa !4
  call void @lean_dec(ptr noundef %48)
  %49 = load ptr, ptr %6, align 8, !tbaa !4
  %50 = load ptr, ptr %16, align 8, !tbaa !4
  %51 = call zeroext i8 @lean_name_eq(ptr noundef %49, ptr noundef %50)
  store i8 %51, ptr %17, align 1, !tbaa !10
  %52 = load ptr, ptr %16, align 8, !tbaa !4
  call void @lean_dec(ptr noundef %52)
  %53 = load i8, ptr %17, align 1, !tbaa !10
  %54 = zext i8 %53 to i32
  %55 = icmp eq i32 %54, 0
  br i1 %55, label %56, label %61

56:                                               ; preds = %41
  call void @llvm.lifetime.start.p0(i64 8, ptr %18) #8
  call void @llvm.lifetime.start.p0(i64 8, ptr %19) #8
  store i64 1, ptr %18, align 8, !tbaa !8
  %57 = load i64, ptr %8, align 8, !tbaa !8
  %58 = load i64, ptr %18, align 8, !tbaa !8
  %59 = call i64 @lean_usize_add(i64 noundef %57, i64 noundef %58)
  store i64 %59, ptr %19, align 8, !tbaa !8
  %60 = load i64, ptr %19, align 8, !tbaa !8
  store i64 %60, ptr %8, align 8, !tbaa !8
  store i32 2, ptr %14, align 4
  call void @llvm.lifetime.end.p0(i64 8, ptr %19) #8
  call void @llvm.lifetime.end.p0(i64 8, ptr %18) #8
  br label %63

61:                                               ; preds = %41
  call void @llvm.lifetime.start.p0(i64 1, ptr %20) #8
  store i8 1, ptr %20, align 1, !tbaa !10
  %62 = load i8, ptr %20, align 1, !tbaa !10
  store i8 %62, ptr %5, align 1
  store i32 1, ptr %14, align 4
  call void @llvm.lifetime.end.p0(i64 1, ptr %20) #8
  br label %63

63:                                               ; preds = %61, %56
  call void @llvm.lifetime.end.p0(i64 1, ptr %17) #8
  call void @llvm.lifetime.end.p0(i64 8, ptr %16) #8
  call void @llvm.lifetime.end.p0(i64 8, ptr %15) #8
  br label %64

64:                                               ; preds = %63, %36
  call void @llvm.lifetime.end.p0(i64 8, ptr %11) #8
  br label %67

65:                                               ; preds = %22
  call void @llvm.lifetime.start.p0(i64 1, ptr %21) #8
  store i8 0, ptr %21, align 1, !tbaa !10
  %66 = load i8, ptr %21, align 1, !tbaa !10
  store i8 %66, ptr %5, align 1
  store i32 1, ptr %14, align 4
  call void @llvm.lifetime.end.p0(i64 1, ptr %21) #8
  br label %67

67:                                               ; preds = %65, %64
  call void @llvm.lifetime.end.p0(i64 1, ptr %10) #8
  %68 = load i32, ptr %14, align 4
  switch i32 %68, label %71 [
    i32 2, label %22
    i32 1, label %69
  ]

69:                                               ; preds = %67
  %70 = load i8, ptr %5, align 1
  ret i8 %70

71:                                               ; preds = %67
  unreachable
}